-----BEGIN RSA PRIVATE KEY-----
Proc-Type: 4,ENCRYPTED
DEK-Info: AES-128-CBC,232D8B150C4B69494F8E3D6CBFDE40BC

5kIRvfdmQh99f0w1bJimHI5SJNQ/tf5hVShQ9fPGFTmhffUCI50w1iQfMW3ZZg7I
l8ppIMJT746rd/Nk119G9nIbEkuwdmk5oXH7mIAesjN/1gs8IDtH3wXVH/xnVO3j
+8qmarYWwrYUK9GucPopkwAcFp4SDfWIuUfcSDpwtq9e5M0GcelnQpcIxJBVIezu
+J1W64VacwXd0EOSvMxy2VINk8DE7VPv9CSVjnNtGDJwY+E7aMZP5iGUgYG2eB7M
BCTIWIJSyXSl35UYu2s+FtFXTgIqtiQznf1Bt1aA+58ivkKTeBzAFrVEl3+cKIpv
x2n3oEuerfysMiG1l5JsgzwHHTQJtsi9zx16TzWZ2XbMfB2W272PfnrOK53UuLsr
9gLcviXt200EWmRCG7s/AZqk+FnklaYgngUHYQXs8fgEc4HxybUx2XxzO78LhIhY
dUpLryUXX9yilScS0SmqZ3tgepgDURXZpjmSr7CvXf1Pw1zQ5PbWCaeQvozxmev2
BljKnf4FgJbgesZnHiBcKUGY4SKmGyGeNVjtDQ7aojxos9MKysbcJvrGNh4nnntQ
BbwgPEjQMj97llC9u4XY/SqB1sZucupQEitONmeVZf8Fsd9UcR5butJOruns3+VD
QcH3rKxHu4pf79E02S9+M8FCmNml8lMWieXcml4gTKHVtGGap0IMyk6//DzZ428S
T5yRyFDgD7jg4C7IH6HuuJfJG1A8gBDKXn1vM9FwZePd2E1gs4Zy0lLzH9nSGAg7
JDIzyNUBjBw0WGXqikcCzKzRbNCLSpGUuvxeWFInisDoRE+zO4ZHV6I6BJepsxZw
-----END RSA PRIVATE KEY-----
Certificate:
    Data:
        Version: 3 (0x2)
        Serial Number: 4097 (0x1001)
    Signature Algorithm: sha256WithRSAEncryption
        Issuer: C=US, ST=New York, L=Syracuse, O=seedlab, OU=seedlab, CN=seedworkshop2020.com/emailAddress=kli148@syr.edu
        Validity
            Not Before: Apr 10 01:21:53 2020 GMT
            Not After : Apr 10 01:21:53 2021 GMT
        Subject: C=US, ST=New York, O=seedlab, OU=seedlab, CN=facebook.com/emailAddress=kli148@syr.edu
        Subject Public Key Info:
            Public Key Algorithm: rsaEncryption
                Public-Key: (1024 bit)
                Modulus:
                    00:a8:dc:49:b2:54:fa:f0:b3:e8:18:c8:dc:ae:13:
                    33:ff:62:c7:3b:5d:85:6f:3e:bb:dc:ed:89:59:e7:
                    8c:d4:56:1f:56:70:fe:df:df:ce:b7:48:cb:13:fe:
                    17:98:47:39:35:47:ec:bc:d1:40:9e:cd:11:13:0a:
                    9d:19:d5:20:6f:64:13:ac:4a:40:c3:ab:44:f0:69:
                    6c:14:f7:89:3a:3d:4a:2b:ed:0e:34:38:79:a6:b1:
                    7f:54:11:d7:8e:77:8e:f6:3f:53:b2:db:48:c3:ad:
                    2e:36:0c:8c:8e:b2:e9:58:54:bc:07:3a:0b:40:0d:
                    69:a6:89:81:70:37:af:cc:c1
                Exponent: 65537 (0x10001)
        X509v3 extensions:
            X509v3 Basic Constraints: 
                CA:FALSE
            Netscape Comment: 
                OpenSSL Generated Certificate
            X509v3 Subject Key Identifier: 
                E8:BB:25:7F:53:64:27:1C:45:87:9F:20:71:E8:CE:92:D4:C0:A2:39
            X509v3 Authority Key Identifier: 
                keyid:83:22:5E:F3:CB:FD:51:DA:0C:2F:65:BD:93:96:F4:8A:F1:84:27:24

    Signature Algorithm: sha256WithRSAEncryption
         8f:c1:09:09:30:7e:e7:cc:88:fe:d7:5e:c5:b6:20:86:cf:8f:
         df:ba:b2:e5:2e:79:09:ce:8f:91:5f:a1:18:3d:a3:ed:07:9e:
         d6:a3:44:5c:46:86:fb:26:1b:58:83:59:7a:29:7b:54:f7:09:
         97:6b:2a:56:b0:1c:f3:1b:ea:8f:91:e3:2a:51:3c:0b:a7:72:
         76:33:6e:53:aa:24:82:ba:50:83:c2:38:9c:ff:a5:b1:ea:76:
         b0:00:f8:f0:66:9e:e1:1b:94:f0:60:c8:54:3a:a6:f5:2d:7d:
         23:97:25:9a:0a:a5:6e:b4:6c:70:34:1b:bc:24:e7:be:95:f3:
         74:c4:1a:29:2a:6e:88:9d:3c:90:90:72:5d:39:75:25:7b:c1:
         f5:c0:07:74:46:50:40:cc:c3:1f:a7:4b:57:dc:61:f0:91:ca:
         ce:41:3b:88:0c:73:e5:95:0d:09:fb:ea:db:23:ce:76:21:71:
         70:70:db:d5:10:a3:45:7a:e9:16:39:7a:d7:24:49:53:e6:bb:
         16:7a:65:59:db:46:7f:9f:cd:d2:3c:ca:b3:2e:60:cb:7a:7b:
         9f:79:08:87:93:f0:a6:01:91:8b:c5:63:4c:78:4c:5b:c9:d7:
         35:3a:9e:72:2c:4c:a9:4b:e7:d2:a1:8a:69:45:f8:cb:78:d2:
         6a:df:10:9c
-----BEGIN CERTIFICATE-----
MIIDgzCCAmugAwIBAgICEAEwDQYJKoZIhvcNAQELBQAwgZUxCzAJBgNVBAYTAlVT
MREwDwYDVQQIDAhOZXcgWW9yazERMA8GA1UEBwwIU3lyYWN1c2UxEDAOBgNVBAoM
B3NlZWRsYWIxEDAOBgNVBAsMB3NlZWRsYWIxHTAbBgNVBAMMFHNlZWR3b3Jrc2hv
cDIwMjAuY29tMR0wGwYJKoZIhvcNAQkBFg5rbGkxNDhAc3lyLmVkdTAeFw0yMDA0
MTAwMTIxNTNaFw0yMTA0MTAwMTIxNTNaMHoxCzAJBgNVBAYTAlVTMREwDwYDVQQI
DAhOZXcgWW9yazEQMA4GA1UECgwHc2VlZGxhYjEQMA4GA1UECwwHc2VlZGxhYjEV
MBMGA1UEAwwMZmFjZWJvb2suY29tMR0wGwYJKoZIhvcNAQkBFg5rbGkxNDhAc3ly
LmVkdTCBnzANBgkqhkiG9w0BAQEFAAOBjQAwgYkCgYEAqNxJslT68LPoGMjcrhMz
/2LHO12Fbz673O2JWeeM1FYfVnD+39/Ot0jLE/4XmEc5NUfsvNFAns0REwqdGdUg
b2QTrEpAw6tE8GlsFPeJOj1KK+0ONDh5prF/VBHXjneO9j9TsttIw60uNgyMjrLp
WFS8BzoLQA1ppomBcDevzMECAwEAAaN7MHkwCQYDVR0TBAIwADAsBglghkgBhvhC
AQ0EHxYdT3BlblNTTCBHZW5lcmF0ZWQgQ2VydGlmaWNhdGUwHQYDVR0OBBYEFOi7
JX9TZCccRYefIHHozpLUwKI5MB8GA1UdIwQYMBaAFIMiXvPL/VHaDC9lvZOW9Irx
hCckMA0GCSqGSIb3DQEBCwUAA4IBAQCPwQkJMH7nzIj+117FtiCGz4/furLlLnkJ
zo+RX6EYPaPtB57Wo0RcRob7JhtYg1l6KXtU9wmXaypWsBzzG+qPkeMqUTwLp3J2
M25TqiSCulCDwjic/6Wx6nawAPjwZp7hG5TwYMhUOqb1LX0jlyWaCqVutGxwNBu8
JOe+lfN0xBopKm6InTyQkHJdOXUle8H1wAd0RlBAzMMfp0tX3GHwkcrOQTuIDHPl
lQ0J++rbI852IXFwcNvVEKNFeukWOXrXJElT5rsWemVZ20Z/n83SPMqzLmDLenuf
eQiHk/CmAZGLxWNMeExbydc1Op5yLEypS+fSoYppRfjLeNJq3xCc
-----END CERTIFICATE-----
