Certificate:
    Data:
        Version: 3 (0x2)
        Serial Number: 4096 (0x1000)
    Signature Algorithm: sha256WithRSAEncryption
        Issuer: C=US, ST=New York, L=Syracuse, O=seedlab, OU=seedlab, CN=seedworkshop2020.com/emailAddress=kli148@syr.edu
        Validity
            Not Before: Apr  9 20:04:06 2020 GMT
            Not After : Apr  9 20:04:06 2021 GMT
        Subject: C=US, ST=New York, O=seedlab, OU=seedlab, CN=seedworkshop2020.com/emailAddress=kli148@syr.edu
        Subject Public Key Info:
            Public Key Algorithm: rsaEncryption
                Public-Key: (1024 bit)
                Modulus:
                    00:a8:dc:49:b2:54:fa:f0:b3:e8:18:c8:dc:ae:13:
                    33:ff:62:c7:3b:5d:85:6f:3e:bb:dc:ed:89:59:e7:
                    8c:d4:56:1f:56:70:fe:df:df:ce:b7:48:cb:13:fe:
                    17:98:47:39:35:47:ec:bc:d1:40:9e:cd:11:13:0a:
                    9d:19:d5:20:6f:64:13:ac:4a:40:c3:ab:44:f0:69:
                    6c:14:f7:89:3a:3d:4a:2b:ed:0e:34:38:79:a6:b1:
                    7f:54:11:d7:8e:77:8e:f6:3f:53:b2:db:48:c3:ad:
                    2e:36:0c:8c:8e:b2:e9:58:54:bc:07:3a:0b:40:0d:
                    69:a6:89:81:70:37:af:cc:c1
                Exponent: 65537 (0x10001)
        X509v3 extensions:
            X509v3 Basic Constraints: 
                CA:FALSE
            Netscape Comment: 
                OpenSSL Generated Certificate
            X509v3 Subject Key Identifier: 
                E8:BB:25:7F:53:64:27:1C:45:87:9F:20:71:E8:CE:92:D4:C0:A2:39
            X509v3 Authority Key Identifier: 
                keyid:83:22:5E:F3:CB:FD:51:DA:0C:2F:65:BD:93:96:F4:8A:F1:84:27:24

    Signature Algorithm: sha256WithRSAEncryption
         6c:3f:06:c7:b4:88:45:1c:80:84:db:1d:59:7e:2b:8e:c7:06:
         5e:a9:4f:5d:4f:a3:7b:9a:85:b5:99:77:2d:5a:21:fc:24:93:
         8b:17:54:43:90:34:e1:43:d7:19:8c:48:e1:ad:fd:65:ab:7c:
         35:2e:66:08:bf:bd:e7:e9:b9:51:e3:91:d5:37:5a:b2:cf:68:
         5e:5d:40:70:18:9f:d5:c8:6e:62:4c:8a:3d:2e:87:d3:db:99:
         10:bc:84:4b:93:b4:81:d4:83:ee:9a:40:d3:d8:e3:c8:45:6d:
         61:6e:d8:94:59:a3:3f:48:09:4c:77:ba:b6:08:f3:1f:ff:82:
         d9:bf:ee:9d:2a:fa:31:53:11:e9:cd:52:47:d5:90:f4:5c:17:
         2f:93:d7:82:ef:ea:f1:21:4f:18:62:f0:9e:20:6f:50:d9:cc:
         5d:ba:df:2d:3e:5c:b0:df:4a:05:93:cf:cc:25:7b:e2:cb:19:
         1e:38:55:78:d4:df:2a:e7:5b:c6:ac:72:0d:af:38:ce:75:b9:
         11:80:c0:d4:94:a0:c8:8c:bf:55:ec:31:07:cd:8c:ec:16:e1:
         aa:22:e3:9b:d0:4a:9a:25:a9:89:61:9a:87:d1:78:5f:96:bc:
         a2:0a:40:11:52:a7:83:71:21:e3:c6:21:fe:cb:2d:bb:ea:85:
         a9:33:a8:b0
-----BEGIN CERTIFICATE-----
MIIDjDCCAnSgAwIBAgICEAAwDQYJKoZIhvcNAQELBQAwgZUxCzAJBgNVBAYTAlVT
MREwDwYDVQQIDAhOZXcgWW9yazERMA8GA1UEBwwIU3lyYWN1c2UxEDAOBgNVBAoM
B3NlZWRsYWIxEDAOBgNVBAsMB3NlZWRsYWIxHTAbBgNVBAMMFHNlZWR3b3Jrc2hv
cDIwMjAuY29tMR0wGwYJKoZIhvcNAQkBFg5rbGkxNDhAc3lyLmVkdTAeFw0yMDA0
MDkyMDA0MDZaFw0yMTA0MDkyMDA0MDZaMIGCMQswCQYDVQQGEwJVUzERMA8GA1UE
CAwITmV3IFlvcmsxEDAOBgNVBAoMB3NlZWRsYWIxEDAOBgNVBAsMB3NlZWRsYWIx
HTAbBgNVBAMMFHNlZWR3b3Jrc2hvcDIwMjAuY29tMR0wGwYJKoZIhvcNAQkBFg5r
bGkxNDhAc3lyLmVkdTCBnzANBgkqhkiG9w0BAQEFAAOBjQAwgYkCgYEAqNxJslT6
8LPoGMjcrhMz/2LHO12Fbz673O2JWeeM1FYfVnD+39/Ot0jLE/4XmEc5NUfsvNFA
ns0REwqdGdUgb2QTrEpAw6tE8GlsFPeJOj1KK+0ONDh5prF/VBHXjneO9j9TsttI
w60uNgyMjrLpWFS8BzoLQA1ppomBcDevzMECAwEAAaN7MHkwCQYDVR0TBAIwADAs
BglghkgBhvhCAQ0EHxYdT3BlblNTTCBHZW5lcmF0ZWQgQ2VydGlmaWNhdGUwHQYD
VR0OBBYEFOi7JX9TZCccRYefIHHozpLUwKI5MB8GA1UdIwQYMBaAFIMiXvPL/VHa
DC9lvZOW9IrxhCckMA0GCSqGSIb3DQEBCwUAA4IBAQBsPwbHtIhFHICE2x1ZfiuO
xwZeqU9dT6N7moW1mXctWiH8JJOLF1RDkDThQ9cZjEjhrf1lq3w1LmYIv73n6blR
45HVN1qyz2heXUBwGJ/VyG5iTIo9LofT25kQvIRLk7SB1IPumkDT2OPIRW1hbtiU
WaM/SAlMd7q2CPMf/4LZv+6dKvoxUxHpzVJH1ZD0XBcvk9eC7+rxIU8YYvCeIG9Q
2cxdut8tPlyw30oFk8/MJXviyxkeOFV41N8q51vGrHINrzjOdbkRgMDUlKDIjL9V
7DEHzYzsFuGqIuOb0EqaJamJYZqH0XhflryiCkARUqeDcSHjxiH+yy276oWpM6iw
-----END CERTIFICATE-----
